Archive member included to satisfy reference by file (symbol)

c:/program files/microchip/xc8/v2.20/avr/bin/../lib/gcc/avr/5.4.0/avrxmega4/memx-const\libgcc.a(_exit.o)
                              C:/Users/M50653/.mchp_packs/Microchip/AVR-Dx_DFP/1.4.75/xc8/avr/lib/avrxmega4/memx-const/crtavr128da48.o (exit)
c:/program files/microchip/xc8/v2.20/avr/bin/../lib/gcc/avr/5.4.0/avrxmega4/memx-const\libgcc.a(_tablejump2.o)
                              build/default/production/main.o (__tablejump2__)
c:/program files/microchip/xc8/v2.20/avr/bin/../lib/gcc/avr/5.4.0/avrxmega4/memx-const\libgcc.a(_copy_data.o)
                              build/default/production/mcc_generated_files/src/usart1.o (__do_copy_data)
c:/program files/microchip/xc8/v2.20/avr/bin/../lib/gcc/avr/5.4.0/../../../../avr/lib/avrxmega4/memx-const\libc.a(iob.o)
                              build/default/production/mcc_generated_files/src/usart1.o (__iob)
c:/program files/microchip/xc8/v2.20/avr/bin/../lib/gcc/avr/5.4.0/../../../../avr/lib/avrxmega4/memx-const\libc.a(printf.o)
                              build/default/production/main.o (printf)
c:/program files/microchip/xc8/v2.20/avr/bin/../lib/gcc/avr/5.4.0/../../../../avr/lib/avrxmega4/memx-const\libc.a(vfprintf_std.o)
                              c:/program files/microchip/xc8/v2.20/avr/bin/../lib/gcc/avr/5.4.0/../../../../avr/lib/avrxmega4/memx-const\libc.a(printf.o) (vfprintf)
c:/program files/microchip/xc8/v2.20/avr/bin/../lib/gcc/avr/5.4.0/../../../../avr/lib/avrxmega4/memx-const\libc.a(strnlen_M.o)
                              c:/program files/microchip/xc8/v2.20/avr/bin/../lib/gcc/avr/5.4.0/../../../../avr/lib/avrxmega4/memx-const\libc.a(vfprintf_std.o) (strnlen)
c:/program files/microchip/xc8/v2.20/avr/bin/../lib/gcc/avr/5.4.0/../../../../avr/lib/avrxmega4/memx-const\libc.a(fputc.o)
                              c:/program files/microchip/xc8/v2.20/avr/bin/../lib/gcc/avr/5.4.0/../../../../avr/lib/avrxmega4/memx-const\libc.a(vfprintf_std.o) (fputc)
c:/program files/microchip/xc8/v2.20/avr/bin/../lib/gcc/avr/5.4.0/../../../../avr/lib/avrxmega4/memx-const\libc.a(ultoa_invert.o)
                              c:/program files/microchip/xc8/v2.20/avr/bin/../lib/gcc/avr/5.4.0/../../../../avr/lib/avrxmega4/memx-const\libc.a(vfprintf_std.o) (__ultoa_invert)
c:/program files/microchip/xc8/v2.20/avr/bin/../lib/gcc/avr/5.4.0/avrxmega4/memx-const\libgcc.a(_xload_1.o)
                              c:/program files/microchip/xc8/v2.20/avr/bin/../lib/gcc/avr/5.4.0/../../../../avr/lib/avrxmega4/memx-const\libc.a(vfprintf_std.o) (__xload_1)

Allocating common symbols
Common symbol       size              file

__iob               0x6               c:/program files/microchip/xc8/v2.20/avr/bin/../lib/gcc/avr/5.4.0/../../../../avr/lib/avrxmega4/memx-const\libc.a(iob.o)

Discarded input sections

 .data          0x0000000000000000        0x0 C:/Users/M50653/.mchp_packs/Microchip/AVR-Dx_DFP/1.4.75/xc8/avr/lib/avrxmega4/memx-const/crtavr128da48.o
 .bss           0x0000000000000000        0x0 C:/Users/M50653/.mchp_packs/Microchip/AVR-Dx_DFP/1.4.75/xc8/avr/lib/avrxmega4/memx-const/crtavr128da48.o
 .text          0x0000000000000000        0x0 build/default/production/mcc_generated_files/src/pin_manager.o
 .data          0x0000000000000000        0x0 build/default/production/mcc_generated_files/src/pin_manager.o
 .bss           0x0000000000000000        0x0 build/default/production/mcc_generated_files/src/pin_manager.o
 .text.PORTC_IO_PC6_SetInterruptHandler
                0x0000000000000000        0xa build/default/production/mcc_generated_files/src/pin_manager.o
 .text.PORTC_Button_SetInterruptHandler
                0x0000000000000000        0xa build/default/production/mcc_generated_files/src/pin_manager.o
 .text.PORTC_PC0_SetInterruptHandler
                0x0000000000000000        0xa build/default/production/mcc_generated_files/src/pin_manager.o
 .text.PORTC_PC1_SetInterruptHandler
                0x0000000000000000        0xa build/default/production/mcc_generated_files/src/pin_manager.o
 .text          0x0000000000000000        0x0 build/default/production/mcc_generated_files/src/cpuint.o
 .data          0x0000000000000000        0x0 build/default/production/mcc_generated_files/src/cpuint.o
 .bss           0x0000000000000000        0x0 build/default/production/mcc_generated_files/src/cpuint.o
 .text          0x0000000000000000        0x0 build/default/production/mcc_generated_files/src/protected_io.o
 .data          0x0000000000000000        0x0 build/default/production/mcc_generated_files/src/protected_io.o
 .bss           0x0000000000000000        0x0 build/default/production/mcc_generated_files/src/protected_io.o
 .text          0x0000000000000000        0x0 build/default/production/mcc_generated_files/src/usart1.o
 .data          0x0000000000000000        0x0 build/default/production/mcc_generated_files/src/usart1.o
 .bss           0x0000000000000000        0x0 build/default/production/mcc_generated_files/src/usart1.o
 .text.Terminal_SetISRCb
                0x0000000000000000       0x1e build/default/production/mcc_generated_files/src/usart1.o
 .text.Terminal_SetRXISRCb
                0x0000000000000000        0xa build/default/production/mcc_generated_files/src/usart1.o
 .text.Terminal_SetTXISRCb
                0x0000000000000000        0xa build/default/production/mcc_generated_files/src/usart1.o
 .text.Terminal_IsTxReady
                0x0000000000000000        0xe build/default/production/mcc_generated_files/src/usart1.o
 .text.Terminal_IsTxBusy
                0x0000000000000000       0x10 build/default/production/mcc_generated_files/src/usart1.o
 .text.Terminal_IsTxDone
                0x0000000000000000        0xc build/default/production/mcc_generated_files/src/usart1.o
 .text.Terminal_Enable
                0x0000000000000000        0xc build/default/production/mcc_generated_files/src/usart1.o
 .text.Terminal_EnableRx
                0x0000000000000000        0xc build/default/production/mcc_generated_files/src/usart1.o
 .text.Terminal_EnableTx
                0x0000000000000000        0xc build/default/production/mcc_generated_files/src/usart1.o
 .text.Terminal_Disable
                0x0000000000000000        0xc build/default/production/mcc_generated_files/src/usart1.o
 .text.Terminal_GetData
                0x0000000000000000        0x6 build/default/production/mcc_generated_files/src/usart1.o
 .text          0x0000000000000000        0x0 build/default/production/mcc_generated_files/src/rtc.o
 .data          0x0000000000000000        0x0 build/default/production/mcc_generated_files/src/rtc.o
 .bss           0x0000000000000000        0x0 build/default/production/mcc_generated_files/src/rtc.o
 .text.RTC_SetOVFIsrCallback
                0x0000000000000000        0xa build/default/production/mcc_generated_files/src/rtc.o
 .text.RTC_SetCMPIsrCallback
                0x0000000000000000        0xa build/default/production/mcc_generated_files/src/rtc.o
 .text.RTC_WriteCounter
                0x0000000000000000       0x16 build/default/production/mcc_generated_files/src/rtc.o
 .text.RTC_ReadCounter
                0x0000000000000000        0xa build/default/production/mcc_generated_files/src/rtc.o
 .text.RTC_WritePeroid
                0x0000000000000000       0x16 build/default/production/mcc_generated_files/src/rtc.o
 .text.RTC_ReadPeriod
                0x0000000000000000        0xa build/default/production/mcc_generated_files/src/rtc.o
 .text.RTC_EnableCMPInterrupt
                0x0000000000000000        0xc build/default/production/mcc_generated_files/src/rtc.o
 .text.RTC_DisableCMPInterrupt
                0x0000000000000000        0xc build/default/production/mcc_generated_files/src/rtc.o
 .text.RTC_EnableOVFInterrupt
                0x0000000000000000        0xc build/default/production/mcc_generated_files/src/rtc.o
 .text.RTC_DisableOVFInterrupt
                0x0000000000000000        0xc build/default/production/mcc_generated_files/src/rtc.o
 .text.RTC_EnablePITInterrupt
                0x0000000000000000        0xc build/default/production/mcc_generated_files/src/rtc.o
 .text.RTC_DisablePITInterrupt
                0x0000000000000000        0xc build/default/production/mcc_generated_files/src/rtc.o
 .text.RTC_ClearOVFInterruptFlag
                0x0000000000000000        0xc build/default/production/mcc_generated_files/src/rtc.o
 .text.RTC_IsOVFInterruptEnabled
                0x0000000000000000        0xc build/default/production/mcc_generated_files/src/rtc.o
 .text          0x0000000000000000        0x0 build/default/production/mcc_generated_files/device_config.o
 .data          0x0000000000000000        0x0 build/default/production/mcc_generated_files/device_config.o
 .bss           0x0000000000000000        0x0 build/default/production/mcc_generated_files/device_config.o
 .text          0x0000000000000000        0x0 build/default/production/mcc_generated_files/mcc.o
 .data          0x0000000000000000        0x0 build/default/production/mcc_generated_files/mcc.o
 .bss           0x0000000000000000        0x0 build/default/production/mcc_generated_files/mcc.o
 .text          0x0000000000000000        0x0 build/default/production/main.o
 .data          0x0000000000000000        0x0 build/default/production/main.o
 .bss           0x0000000000000000        0x0 build/default/production/main.o
 .text.getch    0x0000000000000000        0x6 build/default/production/main.o
 .text          0x0000000000000000        0x0 c:/program files/microchip/xc8/v2.20/avr/bin/../lib/gcc/avr/5.4.0/avrxmega4/memx-const\libgcc.a(_exit.o)
 .data          0x0000000000000000        0x0 c:/program files/microchip/xc8/v2.20/avr/bin/../lib/gcc/avr/5.4.0/avrxmega4/memx-const\libgcc.a(_exit.o)
 .bss           0x0000000000000000        0x0 c:/program files/microchip/xc8/v2.20/avr/bin/../lib/gcc/avr/5.4.0/avrxmega4/memx-const\libgcc.a(_exit.o)
 .text.libgcc.mul
                0x0000000000000000        0x0 c:/program files/microchip/xc8/v2.20/avr/bin/../lib/gcc/avr/5.4.0/avrxmega4/memx-const\libgcc.a(_exit.o)
 .text.libgcc.div
                0x0000000000000000        0x0 c:/program files/microchip/xc8/v2.20/avr/bin/../lib/gcc/avr/5.4.0/avrxmega4/memx-const\libgcc.a(_exit.o)
 .text.libgcc   0x0000000000000000        0x0 c:/program files/microchip/xc8/v2.20/avr/bin/../lib/gcc/avr/5.4.0/avrxmega4/memx-const\libgcc.a(_exit.o)
 .text.libgcc.prologue
                0x0000000000000000        0x0 c:/program files/microchip/xc8/v2.20/avr/bin/../lib/gcc/avr/5.4.0/avrxmega4/memx-const\libgcc.a(_exit.o)
 .text.libgcc.builtins
                0x0000000000000000        0x0 c:/program files/microchip/xc8/v2.20/avr/bin/../lib/gcc/avr/5.4.0/avrxmega4/memx-const\libgcc.a(_exit.o)
 .text.libgcc.fmul
                0x0000000000000000        0x0 c:/program files/microchip/xc8/v2.20/avr/bin/../lib/gcc/avr/5.4.0/avrxmega4/memx-const\libgcc.a(_exit.o)
 .text.libgcc.fixed
                0x0000000000000000        0x0 c:/program files/microchip/xc8/v2.20/avr/bin/../lib/gcc/avr/5.4.0/avrxmega4/memx-const\libgcc.a(_exit.o)
 .text          0x0000000000000000        0x0 c:/program files/microchip/xc8/v2.20/avr/bin/../lib/gcc/avr/5.4.0/avrxmega4/memx-const\libgcc.a(_tablejump2.o)
 .data          0x0000000000000000        0x0 c:/program files/microchip/xc8/v2.20/avr/bin/../lib/gcc/avr/5.4.0/avrxmega4/memx-const\libgcc.a(_tablejump2.o)
 .bss           0x0000000000000000        0x0 c:/program files/microchip/xc8/v2.20/avr/bin/../lib/gcc/avr/5.4.0/avrxmega4/memx-const\libgcc.a(_tablejump2.o)
 .text.libgcc.mul
                0x0000000000000000        0x0 c:/program files/microchip/xc8/v2.20/avr/bin/../lib/gcc/avr/5.4.0/avrxmega4/memx-const\libgcc.a(_tablejump2.o)
 .text.libgcc.div
                0x0000000000000000        0x0 c:/program files/microchip/xc8/v2.20/avr/bin/../lib/gcc/avr/5.4.0/avrxmega4/memx-const\libgcc.a(_tablejump2.o)
 .text.libgcc.prologue
                0x0000000000000000        0x0 c:/program files/microchip/xc8/v2.20/avr/bin/../lib/gcc/avr/5.4.0/avrxmega4/memx-const\libgcc.a(_tablejump2.o)
 .text.libgcc.builtins
                0x0000000000000000        0x0 c:/program files/microchip/xc8/v2.20/avr/bin/../lib/gcc/avr/5.4.0/avrxmega4/memx-const\libgcc.a(_tablejump2.o)
 .text.libgcc.fmul
                0x0000000000000000        0x0 c:/program files/microchip/xc8/v2.20/avr/bin/../lib/gcc/avr/5.4.0/avrxmega4/memx-const\libgcc.a(_tablejump2.o)
 .text.libgcc.fixed
                0x0000000000000000        0x0 c:/program files/microchip/xc8/v2.20/avr/bin/../lib/gcc/avr/5.4.0/avrxmega4/memx-const\libgcc.a(_tablejump2.o)
 .text          0x0000000000000000        0x0 c:/program files/microchip/xc8/v2.20/avr/bin/../lib/gcc/avr/5.4.0/avrxmega4/memx-const\libgcc.a(_copy_data.o)
 .data          0x0000000000000000        0x0 c:/program files/microchip/xc8/v2.20/avr/bin/../lib/gcc/avr/5.4.0/avrxmega4/memx-const\libgcc.a(_copy_data.o)
 .bss           0x0000000000000000        0x0 c:/program files/microchip/xc8/v2.20/avr/bin/../lib/gcc/avr/5.4.0/avrxmega4/memx-const\libgcc.a(_copy_data.o)
 .text.libgcc.mul
                0x0000000000000000        0x0 c:/program files/microchip/xc8/v2.20/avr/bin/../lib/gcc/avr/5.4.0/avrxmega4/memx-const\libgcc.a(_copy_data.o)
 .text.libgcc.div
                0x0000000000000000        0x0 c:/program files/microchip/xc8/v2.20/avr/bin/../lib/gcc/avr/5.4.0/avrxmega4/memx-const\libgcc.a(_copy_data.o)
 .text.libgcc   0x0000000000000000        0x0 c:/program files/microchip/xc8/v2.20/avr/bin/../lib/gcc/avr/5.4.0/avrxmega4/memx-const\libgcc.a(_copy_data.o)
 .text.libgcc.prologue
                0x0000000000000000        0x0 c:/program files/microchip/xc8/v2.20/avr/bin/../lib/gcc/avr/5.4.0/avrxmega4/memx-const\libgcc.a(_copy_data.o)
 .text.libgcc.builtins
                0x0000000000000000        0x0 c:/program files/microchip/xc8/v2.20/avr/bin/../lib/gcc/avr/5.4.0/avrxmega4/memx-const\libgcc.a(_copy_data.o)
 .text.libgcc.fmul
                0x0000000000000000        0x0 c:/program files/microchip/xc8/v2.20/avr/bin/../lib/gcc/avr/5.4.0/avrxmega4/memx-const\libgcc.a(_copy_data.o)
 .text.libgcc.fixed
                0x0000000000000000        0x0 c:/program files/microchip/xc8/v2.20/avr/bin/../lib/gcc/avr/5.4.0/avrxmega4/memx-const\libgcc.a(_copy_data.o)
 .text          0x0000000000000000        0x0 c:/program files/microchip/xc8/v2.20/avr/bin/../lib/gcc/avr/5.4.0/../../../../avr/lib/avrxmega4/memx-const\libc.a(iob.o)
 .data          0x0000000000000000        0x0 c:/program files/microchip/xc8/v2.20/avr/bin/../lib/gcc/avr/5.4.0/../../../../avr/lib/avrxmega4/memx-const\libc.a(iob.o)
 .bss           0x0000000000000000        0x0 c:/program files/microchip/xc8/v2.20/avr/bin/../lib/gcc/avr/5.4.0/../../../../avr/lib/avrxmega4/memx-const\libc.a(iob.o)
 .text          0x0000000000000000        0x0 c:/program files/microchip/xc8/v2.20/avr/bin/../lib/gcc/avr/5.4.0/../../../../avr/lib/avrxmega4/memx-const\libc.a(printf.o)
 .data          0x0000000000000000        0x0 c:/program files/microchip/xc8/v2.20/avr/bin/../lib/gcc/avr/5.4.0/../../../../avr/lib/avrxmega4/memx-const\libc.a(printf.o)
 .bss           0x0000000000000000        0x0 c:/program files/microchip/xc8/v2.20/avr/bin/../lib/gcc/avr/5.4.0/../../../../avr/lib/avrxmega4/memx-const\libc.a(printf.o)
 .text          0x0000000000000000        0x0 c:/program files/microchip/xc8/v2.20/avr/bin/../lib/gcc/avr/5.4.0/../../../../avr/lib/avrxmega4/memx-const\libc.a(vfprintf_std.o)
 .data          0x0000000000000000        0x0 c:/program files/microchip/xc8/v2.20/avr/bin/../lib/gcc/avr/5.4.0/../../../../avr/lib/avrxmega4/memx-const\libc.a(vfprintf_std.o)
 .bss           0x0000000000000000        0x0 c:/program files/microchip/xc8/v2.20/avr/bin/../lib/gcc/avr/5.4.0/../../../../avr/lib/avrxmega4/memx-const\libc.a(vfprintf_std.o)
 .text          0x0000000000000000        0x0 c:/program files/microchip/xc8/v2.20/avr/bin/../lib/gcc/avr/5.4.0/../../../../avr/lib/avrxmega4/memx-const\libc.a(strnlen_M.o)
 .data          0x0000000000000000        0x0 c:/program files/microchip/xc8/v2.20/avr/bin/../lib/gcc/avr/5.4.0/../../../../avr/lib/avrxmega4/memx-const\libc.a(strnlen_M.o)
 .bss           0x0000000000000000        0x0 c:/program files/microchip/xc8/v2.20/avr/bin/../lib/gcc/avr/5.4.0/../../../../avr/lib/avrxmega4/memx-const\libc.a(strnlen_M.o)
 .text          0x0000000000000000        0x0 c:/program files/microchip/xc8/v2.20/avr/bin/../lib/gcc/avr/5.4.0/../../../../avr/lib/avrxmega4/memx-const\libc.a(fputc.o)
 .data          0x0000000000000000        0x0 c:/program files/microchip/xc8/v2.20/avr/bin/../lib/gcc/avr/5.4.0/../../../../avr/lib/avrxmega4/memx-const\libc.a(fputc.o)
 .bss           0x0000000000000000        0x0 c:/program files/microchip/xc8/v2.20/avr/bin/../lib/gcc/avr/5.4.0/../../../../avr/lib/avrxmega4/memx-const\libc.a(fputc.o)
 .text          0x0000000000000000        0x0 c:/program files/microchip/xc8/v2.20/avr/bin/../lib/gcc/avr/5.4.0/../../../../avr/lib/avrxmega4/memx-const\libc.a(ultoa_invert.o)
 .data          0x0000000000000000        0x0 c:/program files/microchip/xc8/v2.20/avr/bin/../lib/gcc/avr/5.4.0/../../../../avr/lib/avrxmega4/memx-const\libc.a(ultoa_invert.o)
 .bss           0x0000000000000000        0x0 c:/program files/microchip/xc8/v2.20/avr/bin/../lib/gcc/avr/5.4.0/../../../../avr/lib/avrxmega4/memx-const\libc.a(ultoa_invert.o)
 .text          0x0000000000000000        0x0 c:/program files/microchip/xc8/v2.20/avr/bin/../lib/gcc/avr/5.4.0/avrxmega4/memx-const\libgcc.a(_xload_1.o)
 .data          0x0000000000000000        0x0 c:/program files/microchip/xc8/v2.20/avr/bin/../lib/gcc/avr/5.4.0/avrxmega4/memx-const\libgcc.a(_xload_1.o)
 .bss           0x0000000000000000        0x0 c:/program files/microchip/xc8/v2.20/avr/bin/../lib/gcc/avr/5.4.0/avrxmega4/memx-const\libgcc.a(_xload_1.o)
 .text.libgcc.mul
                0x0000000000000000        0x0 c:/program files/microchip/xc8/v2.20/avr/bin/../lib/gcc/avr/5.4.0/avrxmega4/memx-const\libgcc.a(_xload_1.o)
 .text.libgcc.div
                0x0000000000000000        0x0 c:/program files/microchip/xc8/v2.20/avr/bin/../lib/gcc/avr/5.4.0/avrxmega4/memx-const\libgcc.a(_xload_1.o)
 .text.libgcc.prologue
                0x0000000000000000        0x0 c:/program files/microchip/xc8/v2.20/avr/bin/../lib/gcc/avr/5.4.0/avrxmega4/memx-const\libgcc.a(_xload_1.o)
 .text.libgcc.builtins
                0x0000000000000000        0x0 c:/program files/microchip/xc8/v2.20/avr/bin/../lib/gcc/avr/5.4.0/avrxmega4/memx-const\libgcc.a(_xload_1.o)
 .text.libgcc.fmul
                0x0000000000000000        0x0 c:/program files/microchip/xc8/v2.20/avr/bin/../lib/gcc/avr/5.4.0/avrxmega4/memx-const\libgcc.a(_xload_1.o)
 .text.libgcc.fixed
                0x0000000000000000        0x0 c:/program files/microchip/xc8/v2.20/avr/bin/../lib/gcc/avr/5.4.0/avrxmega4/memx-const\libgcc.a(_xload_1.o)

Memory Configuration

Name             Origin             Length             Attributes
text             0x0000000000000000 0x0000000000020000 xr
data             0x0000000000804000 0x0000000000004000 rw !x
eeprom           0x0000000000810000 0x0000000000000200 rw !x
fuse             0x0000000000820000 0x0000000000000010 rw !x
lock             0x0000000000830000 0x0000000000000400 rw !x
signature        0x0000000000840000 0x0000000000000400 rw !x
user_signatures  0x0000000000850000 0x0000000000000400 rw !x
*default*        0x0000000000000000 0xffffffffffffffff

Linker script and memory map

Address of section .data set to 0x804000
                0x0000000000008000                __RODATA_PM_OFFSET__ = 0x8000
LOAD C:/Users/M50653/.mchp_packs/Microchip/AVR-Dx_DFP/1.4.75/xc8/avr/lib/avrxmega4/memx-const/crtavr128da48.o
                0x0000000000000001                __MPLAB_BUILD = 0x1
LOAD build/default/production/mcc_generated_files/src/pin_manager.o
LOAD build/default/production/mcc_generated_files/src/cpuint.o
LOAD build/default/production/mcc_generated_files/src/protected_io.o
LOAD build/default/production/mcc_generated_files/src/usart1.o
LOAD build/default/production/mcc_generated_files/src/rtc.o
LOAD build/default/production/mcc_generated_files/device_config.o
LOAD build/default/production/mcc_generated_files/mcc.o
LOAD build/default/production/main.o
START GROUP
LOAD c:/program files/microchip/xc8/v2.20/avr/bin/../lib/gcc/avr/5.4.0/../../../../avr/lib/avrxmega4/memx-const\libm.a
END GROUP
START GROUP
LOAD c:/program files/microchip/xc8/v2.20/avr/bin/../lib/gcc/avr/5.4.0/avrxmega4/memx-const\libgcc.a
LOAD c:/program files/microchip/xc8/v2.20/avr/bin/../lib/gcc/avr/5.4.0/../../../../avr/lib/avrxmega4/memx-const\libm.a
LOAD c:/program files/microchip/xc8/v2.20/avr/bin/../lib/gcc/avr/5.4.0/../../../../avr/lib/avrxmega4/memx-const\libc.a
LOAD C:/Users/M50653/.mchp_packs/Microchip/AVR-Dx_DFP/1.4.75/xc8/avr/lib/avrxmega4/memx-const\libavr128da48.a
END GROUP
                [0x0000000000000000]                __TEXT_REGION_ORIGIN__ = DEFINED (__TEXT_REGION_ORIGIN__)?__TEXT_REGION_ORIGIN__:0x0
                [0x0000000000804000]                __DATA_REGION_ORIGIN__ = DEFINED (__DATA_REGION_ORIGIN__)?__DATA_REGION_ORIGIN__:0x802000
                [0x0000000000020000]                __TEXT_REGION_LENGTH__ = DEFINED (__TEXT_REGION_LENGTH__)?__TEXT_REGION_LENGTH__:0x100000
                [0x0000000000004000]                __DATA_REGION_LENGTH__ = DEFINED (__DATA_REGION_LENGTH__)?__DATA_REGION_LENGTH__:0xffa0
                [0x0000000000000200]                __EEPROM_REGION_LENGTH__ = DEFINED (__EEPROM_REGION_LENGTH__)?__EEPROM_REGION_LENGTH__:0x10000
                [0x0000000000000010]                __FUSE_REGION_LENGTH__ = DEFINED (__FUSE_REGION_LENGTH__)?__FUSE_REGION_LENGTH__:0x400
                0x0000000000000400                __LOCK_REGION_LENGTH__ = DEFINED (__LOCK_REGION_LENGTH__)?__LOCK_REGION_LENGTH__:0x400
                0x0000000000000400                __SIGNATURE_REGION_LENGTH__ = DEFINED (__SIGNATURE_REGION_LENGTH__)?__SIGNATURE_REGION_LENGTH__:0x400
                0x0000000000000400                __USER_SIGNATURE_REGION_LENGTH__ = DEFINED (__USER_SIGNATURE_REGION_LENGTH__)?__USER_SIGNATURE_REGION_LENGTH__:0x400

.hash
 *(.hash)

.dynsym
 *(.dynsym)

.dynstr
 *(.dynstr)

.gnu.version
 *(.gnu.version)

.gnu.version_d
 *(.gnu.version_d)

.gnu.version_r
 *(.gnu.version_r)

.rel.init
 *(.rel.init)

.rela.init
 *(.rela.init)

.rel.text
 *(.rel.text)
 *(.rel.text.*)
 *(.rel.gnu.linkonce.t*)

.rela.text
 *(.rela.text)
 *(.rela.text.*)
 *(.rela.gnu.linkonce.t*)

.rel.fini
 *(.rel.fini)

.rela.fini
 *(.rela.fini)

.rel.rodata
 *(.rel.rodata)
 *(.rel.rodata.*)
 *(.rel.gnu.linkonce.r*)

.rela.rodata
 *(.rela.rodata)
 *(.rela.rodata.*)
 *(.rela.gnu.linkonce.r*)

.rel.data
 *(.rel.data)
 *(.rel.data.*)
 *(.rel.gnu.linkonce.d*)

.rela.data
 *(.rela.data)
 *(.rela.data.*)
 *(.rela.gnu.linkonce.d*)

.rel.ctors
 *(.rel.ctors)

.rela.ctors
 *(.rela.ctors)

.rel.dtors
 *(.rel.dtors)

.rela.dtors
 *(.rela.dtors)

.rel.got
 *(.rel.got)

.rela.got
 *(.rela.got)

.rel.bss
 *(.rel.bss)

.rela.bss
 *(.rela.bss)

.rel.plt
 *(.rel.plt)

.rela.plt
 *(.rela.plt)

.text           0x0000000000000000      0x1cc
 *(.vectors)
 .vectors       0x0000000000000000       0xe8 C:/Users/M50653/.mchp_packs/Microchip/AVR-Dx_DFP/1.4.75/xc8/avr/lib/avrxmega4/memx-const/crtavr128da48.o
                0x0000000000000000                __vector_default
                0x0000000000000000                __vectors
 *(.vectors)
 *(.progmem.gcc*)
 .progmem.gcc_sw_table.main_parse_command
                0x00000000000000e8       0x6e build/default/production/main.o
 *(.dinit)
 .dinit         0x0000000000000156       0x1d data_init
                0x0000000000000174                . = ALIGN (0x2)
 *fill*         0x0000000000000173        0x1 
                0x0000000000000174                __trampolines_start = .
 *(.trampolines)
 .trampolines   0x0000000000000174        0x0 linker stubs
 *(.trampolines*)
                0x0000000000000174                __trampolines_end = .
 *libprintf_flt.a:*(.progmem.data)
 *libc.a:*(.progmem.data)
                0x0000000000000174                . = ALIGN (0x2)
 *(.jumptables)
 *(.jumptables*)
 *(.lowtext)
 *(.lowtext*)
                0x0000000000000174                __ctors_start = .
 *(.ctors)
                0x0000000000000174                __ctors_end = .
                0x0000000000000174                __dtors_start = .
 *(.dtors)
                0x0000000000000174                __dtors_end = .
 SORT(*)(.ctors)
 SORT(*)(.dtors)
 *(.init0)
 .init0         0x0000000000000174        0x0 C:/Users/M50653/.mchp_packs/Microchip/AVR-Dx_DFP/1.4.75/xc8/avr/lib/avrxmega4/memx-const/crtavr128da48.o
                0x0000000000000174                __init
 *(.init0)
 *(.init1)
 *(.init1)
 *(.init2)
 .init2         0x0000000000000174        0xc C:/Users/M50653/.mchp_packs/Microchip/AVR-Dx_DFP/1.4.75/xc8/avr/lib/avrxmega4/memx-const/crtavr128da48.o
 *(.init2)
 *(.init3)
 *(.init3)
 *(.init4)
 .init4         0x0000000000000180       0x40 c:/program files/microchip/xc8/v2.20/avr/bin/../lib/gcc/avr/5.4.0/avrxmega4/memx-const\libgcc.a(_copy_data.o)
                0x0000000000000180                __do_copy_data
                0x00000000000001b2                __do_clear_bss
 *(.init4)
 *(.init5)
 *(.init5)
 *(.init6)
 *(.init6)
 *(.init7)
 *(.init7)
 *(.init8)
 *(.init8)
 *(.init9)
 .init9         0x00000000000001c0        0x8 C:/Users/M50653/.mchp_packs/Microchip/AVR-Dx_DFP/1.4.75/xc8/avr/lib/avrxmega4/memx-const/crtavr128da48.o
 *(.init9)
                0x00000000000001c8                . = ALIGN (0x2)
 *(.fini9)
 .fini9         0x00000000000001c8        0x0 c:/program files/microchip/xc8/v2.20/avr/bin/../lib/gcc/avr/5.4.0/avrxmega4/memx-const\libgcc.a(_exit.o)
                0x00000000000001c8                _exit
                0x00000000000001c8                exit
 *(.fini9)
 *(.fini8)
 *(.fini8)
 *(.fini7)
 *(.fini7)
 *(.fini6)
 *(.fini6)
 *(.fini5)
 *(.fini5)
 *(.fini4)
 *(.fini4)
 *(.fini3)
 *(.fini3)
 *(.fini2)
 *(.fini2)
 *(.fini1)
 *(.fini1)
 *(.fini0)
 .fini0         0x00000000000001c8        0x4 c:/program files/microchip/xc8/v2.20/avr/bin/../lib/gcc/avr/5.4.0/avrxmega4/memx-const\libgcc.a(_exit.o)
 *(.fini0)
                0x00000000000001cc                _etext = .

.data           0x0000000000804000        0x0 load address 0x00000000000001cc
                [!provide]                        PROVIDE (__data_start, .)
 *(.gnu.linkonce.d*)
 *(.gnu.linkonce.r*)
                0x0000000000804000                . = ALIGN (0x2)
                0x0000000000804000                _edata = .
                [!provide]                        PROVIDE (__data_end, .)

.bss            0x0000000000804000        0x6
                [!provide]                        PROVIDE (__bss_start, .)
 *(COMMON)
 COMMON         0x0000000000804000        0x6 c:/program files/microchip/xc8/v2.20/avr/bin/../lib/gcc/avr/5.4.0/../../../../avr/lib/avrxmega4/memx-const\libc.a(iob.o)
                0x0000000000804000                __iob
                [!provide]                        PROVIDE (__bss_end, .)
                0x00000000000001cc                __data_load_start = LOADADDR (.data)
                0x00000000000001cc                __data_load_end = (__data_load_start + SIZEOF (.data))

.noinit         0x0000000000804006        0x0
                [!provide]                        PROVIDE (__noinit_start, .)
 *(.noinit*)
                [!provide]                        PROVIDE (__noinit_end, .)
                0x0000000000804006                _end = .

.eeprom         0x0000000000810000        0x0
 *(.eeprom*)
                0x0000000000810000                __eeprom_end = .

.fuse           0x0000000000820000        0x9
 *(.fuse)
 .fuse          0x0000000000820000        0x9 build/default/production/mcc_generated_files/device_config.o
                0x0000000000820000                __fuse
 *(.lfuse)
 *(.hfuse)
 *(.efuse)

.lock
 *(.lock*)

.signature
 *(.signature*)

.user_signatures
 *(.user_signatures*)

.stab
 *(.stab)

.stabstr
 *(.stabstr)

.stab.excl
 *(.stab.excl)

.stab.exclstr
 *(.stab.exclstr)

.stab.index
 *(.stab.index)

.stab.indexstr
 *(.stab.indexstr)

.comment        0x0000000000000000       0x5b
 *(.comment)
 .comment       0x0000000000000000       0x2f build/default/production/mcc_generated_files/src/pin_manager.o
                                         0x30 (size before relaxing)
 .comment       0x000000000000002f       0x30 build/default/production/mcc_generated_files/src/cpuint.o
 .comment       0x000000000000002f       0x30 build/default/production/mcc_generated_files/src/usart1.o
 .comment       0x000000000000002f       0x30 build/default/production/mcc_generated_files/src/rtc.o
 .comment       0x000000000000002f       0x30 build/default/production/mcc_generated_files/device_config.o
 .comment       0x000000000000002f       0x30 build/default/production/mcc_generated_files/mcc.o
 .comment       0x000000000000002f       0x30 build/default/production/main.o
 .comment       0x000000000000002f       0x2c c:/program files/microchip/xc8/v2.20/avr/bin/../lib/gcc/avr/5.4.0/../../../../avr/lib/avrxmega4/memx-const\libc.a(iob.o)
                                         0x2d (size before relaxing)
 .comment       0x000000000000005b       0x2d c:/program files/microchip/xc8/v2.20/avr/bin/../lib/gcc/avr/5.4.0/../../../../avr/lib/avrxmega4/memx-const\libc.a(printf.o)
 .comment       0x000000000000005b       0x2d c:/program files/microchip/xc8/v2.20/avr/bin/../lib/gcc/avr/5.4.0/../../../../avr/lib/avrxmega4/memx-const\libc.a(vfprintf_std.o)
 .comment       0x000000000000005b       0x2d c:/program files/microchip/xc8/v2.20/avr/bin/../lib/gcc/avr/5.4.0/../../../../avr/lib/avrxmega4/memx-const\libc.a(strnlen_M.o)
 .comment       0x000000000000005b       0x2d c:/program files/microchip/xc8/v2.20/avr/bin/../lib/gcc/avr/5.4.0/../../../../avr/lib/avrxmega4/memx-const\libc.a(fputc.o)

.note.gnu.build-id
 *(.note.gnu.build-id)

.debug
 *(.debug)

.line
 *(.line)

.debug_srcinfo
 *(.debug_srcinfo)

.debug_sfnames
 *(.debug_sfnames)

.debug_aranges  0x0000000000000000      0x2f0
 *(.debug_aranges)
 .debug_aranges
                0x0000000000000000       0x70 build/default/production/mcc_generated_files/src/pin_manager.o
 .debug_aranges
                0x0000000000000070       0x20 build/default/production/mcc_generated_files/src/cpuint.o
 .debug_aranges
                0x0000000000000090       0x20 build/default/production/mcc_generated_files/src/protected_io.o
 .debug_aranges
                0x00000000000000b0       0xc0 build/default/production/mcc_generated_files/src/usart1.o
 .debug_aranges
                0x0000000000000170       0xa8 build/default/production/mcc_generated_files/src/rtc.o
 .debug_aranges
                0x0000000000000218       0x18 build/default/production/mcc_generated_files/device_config.o
 .debug_aranges
                0x0000000000000230       0x48 build/default/production/mcc_generated_files/mcc.o
 .debug_aranges
                0x0000000000000278       0x78 build/default/production/main.o

.debug_pubnames
 *(.debug_pubnames)

.debug_info     0x0000000000000000     0x7165
 *(.debug_info .gnu.linkonce.wi.*)
 .debug_info    0x0000000000000000     0x2c24 C:/Users/M50653/.mchp_packs/Microchip/AVR-Dx_DFP/1.4.75/xc8/avr/lib/avrxmega4/memx-const/crtavr128da48.o
 .debug_info    0x0000000000002c24      0xa4a build/default/production/mcc_generated_files/src/pin_manager.o
 .debug_info    0x000000000000366e      0x3dd build/default/production/mcc_generated_files/src/cpuint.o
 .debug_info    0x0000000000003a4b       0x9d build/default/production/mcc_generated_files/src/protected_io.o
 .debug_info    0x0000000000003ae8      0xb54 build/default/production/mcc_generated_files/src/usart1.o
 .debug_info    0x000000000000463c      0x88e build/default/production/mcc_generated_files/src/rtc.o
 .debug_info    0x0000000000004eca      0x846 build/default/production/mcc_generated_files/device_config.o
 .debug_info    0x0000000000005710      0x9d9 build/default/production/mcc_generated_files/mcc.o
 .debug_info    0x00000000000060e9     0x107c build/default/production/main.o

.debug_abbrev   0x0000000000000000     0x350c
 *(.debug_abbrev)
 .debug_abbrev  0x0000000000000000     0x29ce C:/Users/M50653/.mchp_packs/Microchip/AVR-Dx_DFP/1.4.75/xc8/avr/lib/avrxmega4/memx-const/crtavr128da48.o
 .debug_abbrev  0x00000000000029ce      0x183 build/default/production/mcc_generated_files/src/pin_manager.o
 .debug_abbrev  0x0000000000002b51       0xfa build/default/production/mcc_generated_files/src/cpuint.o
 .debug_abbrev  0x0000000000002c4b       0x14 build/default/production/mcc_generated_files/src/protected_io.o
 .debug_abbrev  0x0000000000002c5f      0x2d4 build/default/production/mcc_generated_files/src/usart1.o
 .debug_abbrev  0x0000000000002f33      0x164 build/default/production/mcc_generated_files/src/rtc.o
 .debug_abbrev  0x0000000000003097       0x97 build/default/production/mcc_generated_files/device_config.o
 .debug_abbrev  0x000000000000312e      0x169 build/default/production/mcc_generated_files/mcc.o
 .debug_abbrev  0x0000000000003297      0x275 build/default/production/main.o

.debug_line     0x0000000000000000     0x1952
 *(.debug_line .debug_line.* .debug_line_end)
 .debug_line    0x0000000000000000      0x1f6 C:/Users/M50653/.mchp_packs/Microchip/AVR-Dx_DFP/1.4.75/xc8/avr/lib/avrxmega4/memx-const/crtavr128da48.o
 .debug_line    0x00000000000001f6      0x4d3 build/default/production/mcc_generated_files/src/pin_manager.o
 .debug_line    0x00000000000006c9      0x17b build/default/production/mcc_generated_files/src/cpuint.o
 .debug_line    0x0000000000000844       0x6c build/default/production/mcc_generated_files/src/protected_io.o
 .debug_line    0x00000000000008b0      0x43f build/default/production/mcc_generated_files/src/usart1.o
 .debug_line    0x0000000000000cef      0x355 build/default/production/mcc_generated_files/src/rtc.o
 .debug_line    0x0000000000001044       0xe0 build/default/production/mcc_generated_files/device_config.o
 .debug_line    0x0000000000001124      0x254 build/default/production/mcc_generated_files/mcc.o
 .debug_line    0x0000000000001378      0x5da build/default/production/main.o

.debug_frame    0x0000000000000000      0x8b8
 *(.debug_frame)
 .debug_frame   0x0000000000000000      0x120 build/default/production/mcc_generated_files/src/pin_manager.o
 .debug_frame   0x0000000000000120       0x24 build/default/production/mcc_generated_files/src/cpuint.o
 .debug_frame   0x0000000000000144      0x210 build/default/production/mcc_generated_files/src/usart1.o
 .debug_frame   0x0000000000000354      0x1c4 build/default/production/mcc_generated_files/src/rtc.o
 .debug_frame   0x0000000000000518       0x84 build/default/production/mcc_generated_files/mcc.o
 .debug_frame   0x000000000000059c      0x31c build/default/production/main.o

.debug_str      0x0000000000000000     0x143e
 *(.debug_str)
 .debug_str     0x0000000000000000     0x1320 C:/Users/M50653/.mchp_packs/Microchip/AVR-Dx_DFP/1.4.75/xc8/avr/lib/avrxmega4/memx-const/crtavr128da48.o
 .debug_str     0x0000000000001320       0x25 build/default/production/mcc_generated_files/src/pin_manager.o
 .debug_str     0x0000000000001345       0x13 build/default/production/mcc_generated_files/src/cpuint.o
 .debug_str     0x0000000000001358        0x0 build/default/production/mcc_generated_files/src/usart1.o
 .debug_str     0x0000000000001358        0x9 build/default/production/mcc_generated_files/src/rtc.o
 .debug_str     0x0000000000001361        0x0 build/default/production/mcc_generated_files/device_config.o
 .debug_str     0x0000000000001361       0x75 build/default/production/mcc_generated_files/mcc.o
 .debug_str     0x00000000000013d6       0x68 build/default/production/main.o

.debug_loc      0x0000000000000000      0x76b
 *(.debug_loc)
 .debug_loc     0x0000000000000000       0x78 build/default/production/mcc_generated_files/src/pin_manager.o
 .debug_loc     0x0000000000000078       0x2a build/default/production/mcc_generated_files/src/cpuint.o
 .debug_loc     0x00000000000000a2      0x123 build/default/production/mcc_generated_files/src/usart1.o
 .debug_loc     0x00000000000001c5      0x19c build/default/production/mcc_generated_files/mcc.o
 .debug_loc     0x0000000000000361      0x40a build/default/production/main.o

.debug_macinfo
 *(.debug_macinfo)

.debug_weaknames
 *(.debug_weaknames)

.debug_funcnames
 *(.debug_funcnames)

.debug_typenames
 *(.debug_typenames)

.debug_varnames
 *(.debug_varnames)

.debug_pubtypes
 *(.debug_pubtypes)

.debug_ranges   0x0000000000000000      0x258
 *(.debug_ranges)
 .debug_ranges  0x0000000000000000       0x60 build/default/production/mcc_generated_files/src/pin_manager.o
 .debug_ranges  0x0000000000000060       0x10 build/default/production/mcc_generated_files/src/cpuint.o
 .debug_ranges  0x0000000000000070       0xb0 build/default/production/mcc_generated_files/src/usart1.o
 .debug_ranges  0x0000000000000120       0x98 build/default/production/mcc_generated_files/src/rtc.o
 .debug_ranges  0x00000000000001b8       0x38 build/default/production/mcc_generated_files/mcc.o
 .debug_ranges  0x00000000000001f0       0x68 build/default/production/main.o

.debug_macro
 *(.debug_macro)
OUTPUT(dist/default/production/avr128da48-cnano-sleep-modes-mcc.X.production.elf elf32-avr)
LOAD linker stubs
LOAD data_init

.note.gnu.avr.deviceinfo
                0x0000000000000000       0x40
 .note.gnu.avr.deviceinfo
                0x0000000000000000       0x40 C:/Users/M50653/.mchp_packs/Microchip/AVR-Dx_DFP/1.4.75/xc8/avr/lib/avrxmega4/memx-const/crtavr128da48.o

.bss.PORTC_PC1_InterruptHandler
                0x0000000000804025        0x2
 .bss.PORTC_PC1_InterruptHandler
                0x0000000000804025        0x2 build/default/production/mcc_generated_files/src/pin_manager.o

.bss.PORTC_PC0_InterruptHandler
                0x0000000000804027        0x2
 .bss.PORTC_PC0_InterruptHandler
                0x0000000000804027        0x2 build/default/production/mcc_generated_files/src/pin_manager.o

.bss.PORTC_Button_InterruptHandler
                0x0000000000804029        0x2
 .bss.PORTC_Button_InterruptHandler
                0x0000000000804029        0x2 build/default/production/mcc_generated_files/src/pin_manager.o

.bss.PORTC_IO_PC6_InterruptHandler
                0x000000000080402b        0x2
 .bss.PORTC_IO_PC6_InterruptHandler
                0x000000000080402b        0x2 build/default/production/mcc_generated_files/src/pin_manager.o

.bss.Terminal_tx_elements
                0x0000000000804037        0x1
 .bss.Terminal_tx_elements
                0x0000000000804037        0x1 build/default/production/mcc_generated_files/src/usart1.o

.bss.Terminal_tx_tail
                0x0000000000804038        0x1
 .bss.Terminal_tx_tail
                0x0000000000804038        0x1 build/default/production/mcc_generated_files/src/usart1.o

.bss.Terminal_tx_head
                0x0000000000804039        0x1
 .bss.Terminal_tx_head
                0x0000000000804039        0x1 build/default/production/mcc_generated_files/src/usart1.o

.bss.Terminal_txbuf
                0x0000000000804015        0x8
 .bss.Terminal_txbuf
                0x0000000000804015        0x8 build/default/production/mcc_generated_files/src/usart1.o

.bss.Terminal_rx_elements
                0x000000000080403a        0x1
 .bss.Terminal_rx_elements
                0x000000000080403a        0x1 build/default/production/mcc_generated_files/src/usart1.o

.bss.Terminal_rx_tail
                0x000000000080403b        0x1
 .bss.Terminal_rx_tail
                0x000000000080403b        0x1 build/default/production/mcc_generated_files/src/usart1.o

.bss.Terminal_rx_head
                0x000000000080403c        0x1
 .bss.Terminal_rx_head
                0x000000000080403c        0x1 build/default/production/mcc_generated_files/src/usart1.o

.bss.Terminal_rxbuf
                0x000000000080401d        0x8
 .bss.Terminal_rxbuf
                0x000000000080401d        0x8 build/default/production/mcc_generated_files/src/usart1.o

.bss.RTC_PIT_isr_cb
                0x0000000000804031        0x2
 .bss.RTC_PIT_isr_cb
                0x0000000000804031        0x2 build/default/production/mcc_generated_files/src/rtc.o
                0x0000000000804031                RTC_PIT_isr_cb

.bss.RTC_CMP_isr_cb
                0x0000000000804033        0x2
 .bss.RTC_CMP_isr_cb
                0x0000000000804033        0x2 build/default/production/mcc_generated_files/src/rtc.o
                0x0000000000804033                RTC_CMP_isr_cb

.bss.RTC_OVF_isr_cb
                0x0000000000804035        0x2
 .bss.RTC_OVF_isr_cb
                0x0000000000804035        0x2 build/default/production/mcc_generated_files/src/rtc.o
                0x0000000000804035                RTC_OVF_isr_cb

.bss.PIT_flag   0x000000000080403d        0x1
 .bss.PIT_flag  0x000000000080403d        0x1 build/default/production/main.o
                0x000000000080403d                PIT_flag

.progmemx.data  0x00000000000001cc      0x4a0
 .progmemx.data
                0x00000000000001cc      0x4a0 build/default/production/main.o

.text.avrlibc   0x000000000000066c      0x444
 .text.avrlibc  0x000000000000066c      0x444 c:/program files/microchip/xc8/v2.20/avr/bin/../lib/gcc/avr/5.4.0/../../../../avr/lib/avrxmega4/memx-const\libc.a(vfprintf_std.o)
                0x000000000000066c                vfprintf

.text.cmd_cycle
                0x0000000000000ab0      0x20e
 .text.cmd_cycle
                0x0000000000000ab0      0x20e build/default/production/main.o
                0x0000000000000ab0                cmd_cycle

.text.PIN_MANAGER_Initialize
                0x0000000000000cbe      0x17a
 .text.PIN_MANAGER_Initialize
                0x0000000000000cbe      0x17a build/default/production/mcc_generated_files/src/pin_manager.o
                0x0000000000000cbe                PIN_MANAGER_Initialize

.text.cmd_wakeup
                0x0000000000000e38      0x12c
 .text.cmd_wakeup
                0x0000000000000e38      0x12c build/default/production/main.o
                0x0000000000000e38                cmd_wakeup

.text.main_print_menu
                0x0000000000000f64       0xf8
 .text.main_print_menu
                0x0000000000000f64       0xf8 build/default/production/main.o
                0x0000000000000f64                main_print_menu

.text.avrlibc   0x000000000000105c       0xbc
 .text.avrlibc  0x000000000000105c       0xbc c:/program files/microchip/xc8/v2.20/avr/bin/../lib/gcc/avr/5.4.0/../../../../avr/lib/avrxmega4/memx-const\libc.a(ultoa_invert.o)
                0x000000000000105c                __ultoa_invert

.text.cmd_power_down
                0x0000000000001118       0x8e
 .text.cmd_power_down
                0x0000000000001118       0x8e build/default/production/main.o
                0x0000000000001118                cmd_power_down

.text.cmd_standby
                0x00000000000011a6       0x8e
 .text.cmd_standby
                0x00000000000011a6       0x8e build/default/production/main.o
                0x00000000000011a6                cmd_standby

.text.__vector_29
                0x0000000000001234       0x88
 .text.__vector_29
                0x0000000000001234       0x88 build/default/production/mcc_generated_files/src/pin_manager.o
                0x0000000000001234                __vector_29

.text.__vector_3
                0x00000000000012bc       0x7e
 .text.__vector_3
                0x00000000000012bc       0x7e build/default/production/mcc_generated_files/src/rtc.o
                0x00000000000012bc                __vector_3

.text.avrlibc   0x000000000000133a       0x78
 .text.avrlibc  0x000000000000133a       0x78 c:/program files/microchip/xc8/v2.20/avr/bin/../lib/gcc/avr/5.4.0/../../../../avr/lib/avrxmega4/memx-const\libc.a(fputc.o)
                0x000000000000133a                fputc

.text.PORT_Initialize
                0x00000000000013b2       0x6e
 .text.PORT_Initialize
                0x00000000000013b2       0x6e build/default/production/mcc_generated_files/src/pin_manager.o
                0x00000000000013b2                PORT_Initialize

.text.cmd_idle  0x0000000000001420       0x6c
 .text.cmd_idle
                0x0000000000001420       0x6c build/default/production/main.o
                0x0000000000001420                cmd_idle

.text.__vector_4
                0x000000000000148c       0x60
 .text.__vector_4
                0x000000000000148c       0x60 build/default/production/mcc_generated_files/src/rtc.o
                0x000000000000148c                __vector_4

.text.__vector_31
                0x00000000000014ec       0x5a
 .text.__vector_31
                0x00000000000014ec       0x5a build/default/production/mcc_generated_files/src/usart1.o
                0x00000000000014ec                __vector_31

.text.__vector_32
                0x0000000000001546       0x5a
 .text.__vector_32
                0x0000000000001546       0x5a build/default/production/mcc_generated_files/src/usart1.o
                0x0000000000001546                __vector_32

.text.CLKCTRL_Initialize
                0x00000000000015a0       0x58
 .text.CLKCTRL_Initialize
                0x00000000000015a0       0x58 build/default/production/mcc_generated_files/mcc.o
                0x00000000000015a0                CLKCTRL_Initialize

.text.cmd_active
                0x00000000000015f8       0x48
 .text.cmd_active
                0x00000000000015f8       0x48 build/default/production/main.o
                0x00000000000015f8                cmd_active

.text.Terminal_Initialize
                0x0000000000001640       0x46
 .text.Terminal_Initialize
                0x0000000000001640       0x46 build/default/production/mcc_generated_files/src/usart1.o
                0x0000000000001640                Terminal_Initialize

.text.main_parse_command
                0x0000000000001686       0x40
 .text.main_parse_command
                0x0000000000001686       0x40 build/default/production/main.o
                0x0000000000001686                main_parse_command

.text.Terminal_DefaultTxIsrCb
                0x00000000000016c6       0x3e
 .text.Terminal_DefaultTxIsrCb
                0x00000000000016c6       0x3e build/default/production/mcc_generated_files/src/usart1.o
                0x00000000000016c6                Terminal_DefaultTxIsrCb

.text.Terminal_Write
                0x0000000000001704       0x3e
 .text.Terminal_Write
                0x0000000000001704       0x3e build/default/production/mcc_generated_files/src/usart1.o
                0x0000000000001704                Terminal_Write

.text.avrlibc   0x0000000000001742       0x38
 .text.avrlibc  0x0000000000001742       0x38 c:/program files/microchip/xc8/v2.20/avr/bin/../lib/gcc/avr/5.4.0/../../../../avr/lib/avrxmega4/memx-const\libc.a(strnlen_M.o)
                0x0000000000001742                strnlen

.text.__vector_33
                0x000000000000177a       0x32
 .text.__vector_33
                0x000000000000177a       0x32 build/default/production/mcc_generated_files/src/usart1.o
                0x000000000000177a                __vector_33

.text.Terminal_Read
                0x00000000000017ac       0x32
 .text.Terminal_Read
                0x00000000000017ac       0x32 build/default/production/mcc_generated_files/src/usart1.o
                0x00000000000017ac                Terminal_Read

.text.RTC_Initialize
                0x00000000000017de       0x30
 .text.RTC_Initialize
                0x00000000000017de       0x30 build/default/production/mcc_generated_files/src/rtc.o
                0x00000000000017de                RTC_Initialize

.text.Terminal_DefaultRxIsrCb
                0x000000000000180e       0x2c
 .text.Terminal_DefaultRxIsrCb
                0x000000000000180e       0x2c build/default/production/mcc_generated_files/src/usart1.o
                0x000000000000180e                Terminal_DefaultRxIsrCb

.text.avrlibc   0x000000000000183a       0x2a
 .text.avrlibc  0x000000000000183a       0x2a c:/program files/microchip/xc8/v2.20/avr/bin/../lib/gcc/avr/5.4.0/../../../../avr/lib/avrxmega4/memx-const\libc.a(printf.o)
                0x000000000000183a                printf

.text.main      0x0000000000001864       0x24
 .text.main     0x0000000000001864       0x24 build/default/production/main.o
                0x0000000000001864                main

.text.SYSTEM_Initialize
                0x0000000000001888       0x22
 .text.SYSTEM_Initialize
                0x0000000000001888       0x22 build/default/production/mcc_generated_files/mcc.o
                0x0000000000001888                SYSTEM_Initialize

.text.__vector_2
                0x00000000000018aa       0x1e
 .text.__vector_2
                0x00000000000018aa       0x1e build/default/production/mcc_generated_files/mcc.o
                0x00000000000018aa                __vector_2

.text.CPUINT_Initialize
                0x00000000000018c8       0x1a
 .text.CPUINT_Initialize
                0x00000000000018c8       0x1a build/default/production/mcc_generated_files/src/cpuint.o
                0x00000000000018c8                CPUINT_Initialize

.text.BOD_Initialize
                0x00000000000018e2       0x18
 .text.BOD_Initialize
                0x00000000000018e2       0x18 build/default/production/mcc_generated_files/mcc.o
                0x00000000000018e2                BOD_Initialize

.text.cmd_default
                0x00000000000018fa       0x12
 .text.cmd_default
                0x00000000000018fa       0x12 build/default/production/main.o
                0x00000000000018fa                cmd_default

.text.libgcc    0x000000000000190c       0x12
 .text.libgcc   0x000000000000190c       0x12 c:/program files/microchip/xc8/v2.20/avr/bin/../lib/gcc/avr/5.4.0/avrxmega4/memx-const\libgcc.a(_tablejump2.o)
                0x000000000000190c                __tablejump2__

.text.SLPCTRL_Initialize
                0x000000000000191e       0x10
 .text.SLPCTRL_Initialize
                0x000000000000191e       0x10 build/default/production/mcc_generated_files/mcc.o
                0x000000000000191e                SLPCTRL_Initialize

.text.WDT_Initialize
                0x000000000000192e       0x10
 .text.WDT_Initialize
                0x000000000000192e       0x10 build/default/production/mcc_generated_files/mcc.o
                0x000000000000192e                WDT_Initialize

.text.Terminal_IsRxReady
                0x000000000000193e        0xe
 .text.Terminal_IsRxReady
                0x000000000000193e        0xe build/default/production/mcc_generated_files/src/usart1.o
                0x000000000000193e                Terminal_IsRxReady

.text.libgcc    0x000000000000194c        0xe
 .text.libgcc   0x000000000000194c        0xe c:/program files/microchip/xc8/v2.20/avr/bin/../lib/gcc/avr/5.4.0/avrxmega4/memx-const\libgcc.a(_xload_1.o)
                0x000000000000194c                __xload_1

.text.protected_write_io
                0x000000000000195a        0xa
 .text.protected_write_io
                0x000000000000195a        0xa build/default/production/mcc_generated_files/src/protected_io.o
                0x000000000000195a                protected_write_io

.text.Terminal_printCHAR
                0x0000000000001964        0xa
 .text.Terminal_printCHAR
                0x0000000000001964        0xa build/default/production/mcc_generated_files/src/usart1.o
                0x0000000000001964                Terminal_printCHAR

.text.RTC_SetPITIsrCallback
                0x000000000000196e        0xa
 .text.RTC_SetPITIsrCallback
                0x000000000000196e        0xa build/default/production/mcc_generated_files/src/rtc.o
                0x000000000000196e                RTC_SetPITIsrCallback

.text.PIT_ISR   0x0000000000001978        0x8
 .text.PIT_ISR  0x0000000000001978        0x8 build/default/production/main.o
                0x0000000000001978                PIT_ISR

.text           0x0000000000001980        0x4
 .text          0x0000000000001980        0x4 C:/Users/M50653/.mchp_packs/Microchip/AVR-Dx_DFP/1.4.75/xc8/avr/lib/avrxmega4/memx-const/crtavr128da48.o
                0x0000000000001980                __vector_38
                0x0000000000001980                __vector_22
                0x0000000000001980                __vector_28
                0x0000000000001980                __vector_1
                0x0000000000001980                __vector_34
                0x0000000000001980                __vector_24
                0x0000000000001980                __vector_12
                0x0000000000001980                __vector_55
                0x0000000000001980                __vector_46
                0x0000000000001980                __bad_interrupt
                0x0000000000001980                __vector_6
                0x0000000000001980                __vector_35
                0x0000000000001980                __vector_39
                0x0000000000001980                __vector_23
                0x0000000000001980                __vector_30
                0x0000000000001980                __vector_45
                0x0000000000001980                __vector_25
                0x0000000000001980                __vector_11
                0x0000000000001980                __vector_54
                0x0000000000001980                __vector_13
                0x0000000000001980                __vector_17
                0x0000000000001980                __vector_19
                0x0000000000001980                __vector_56
                0x0000000000001980                __vector_7
                0x0000000000001980                __vector_49
                0x0000000000001980                __vector_41
                0x0000000000001980                __vector_43
                0x0000000000001980                __vector_27
                0x0000000000001980                __vector_5
                0x0000000000001980                __vector_47
                0x0000000000001980                __vector_52
                0x0000000000001980                __vector_37
                0x0000000000001980                __vector_44
                0x0000000000001980                __vector_51
                0x0000000000001980                __vector_9
                0x0000000000001980                __vector_21
                0x0000000000001980                __vector_15
                0x0000000000001980                __vector_36
                0x0000000000001980                __vector_40
                0x0000000000001980                __vector_8
                0x0000000000001980                __vector_26
                0x0000000000001980                __vector_48
                0x0000000000001980                __vector_14
                0x0000000000001980                __vector_57
                0x0000000000001980                __vector_53
                0x0000000000001980                __vector_10
                0x0000000000001980                __vector_50
                0x0000000000001980                __vector_16
                0x0000000000001980                __vector_18
                0x0000000000001980                __vector_20
                0x0000000000001980                __vector_42

.text.PORTC_IO_PC6_DefaultInterruptHandler
                0x0000000000001984        0x2
 .text.PORTC_IO_PC6_DefaultInterruptHandler
                0x0000000000001984        0x2 build/default/production/mcc_generated_files/src/pin_manager.o
                0x0000000000001984                PORTC_IO_PC6_DefaultInterruptHandler

.text.PORTC_Button_DefaultInterruptHandler
                0x0000000000001986        0x2
 .text.PORTC_Button_DefaultInterruptHandler
                0x0000000000001986        0x2 build/default/production/mcc_generated_files/src/pin_manager.o
                0x0000000000001986                PORTC_Button_DefaultInterruptHandler

.text.PORTC_PC0_DefaultInterruptHandler
                0x0000000000001988        0x2
 .text.PORTC_PC0_DefaultInterruptHandler
                0x0000000000001988        0x2 build/default/production/mcc_generated_files/src/pin_manager.o
                0x0000000000001988                PORTC_PC0_DefaultInterruptHandler

.text.PORTC_PC1_DefaultInterruptHandler
                0x000000000000198a        0x2
 .text.PORTC_PC1_DefaultInterruptHandler
                0x000000000000198a        0x2 build/default/production/mcc_generated_files/src/pin_manager.o
                0x000000000000198a                PORTC_PC1_DefaultInterruptHandler

.data.Terminal_stream
                0x0000000000804006        0xf load address 0x000000000000198c
 .data.Terminal_stream
                0x0000000000804006        0xf build/default/production/mcc_generated_files/src/usart1.o
                0x0000000000804006                Terminal_stream

.data.Terminal_tx_isr_cb
                0x000000000080402d        0x2 load address 0x000000000000199b
 .data.Terminal_tx_isr_cb
                0x000000000080402d        0x2 build/default/production/mcc_generated_files/src/usart1.o
                0x000000000080402d                Terminal_tx_isr_cb

.data.Terminal_rx_isr_cb
                0x000000000080402f        0x2 load address 0x000000000000199d
 .data.Terminal_rx_isr_cb
                0x000000000080402f        0x2 build/default/production/mcc_generated_files/src/usart1.o
                0x000000000080402f                Terminal_rx_isr_cb
